; Function Attrs: mustprogress uwtable
define void @_ZN4lean4nameC2ERKS0_RKNS_3natE(ptr noundef nonnull align 8 dereferenceable(8) initializes((0, 8)) %0, ptr noundef nonnull readonly align 8 captures(none) dereferenceable(8) %1, ptr noundef nonnull readonly align 8 captures(none) dereferenceable(8) %2) unnamed_addr #1 align 2 personality ptr @__gxx_personality_v0 {
  %4 = load ptr, ptr %1, align 8, !tbaa !6
  %5 = load ptr, ptr %2, align 8, !tbaa !6
  %6 = tail call ptr @lean_name_mk_numeral(ptr noundef %4, ptr noundef %5)
  store ptr %6, ptr %0, align 8, !tbaa !6
  %7 = load ptr, ptr %1, align 8, !tbaa !6
  %8 = ptrtoint ptr %7 to i64
  %9 = and i64 %8, 1
  %.not.i = icmp eq i64 %9, 0
  br i1 %.not.i, label %10, label %_ZN4lean3incEP11lean_object.exit

10:                                               ; preds = %3
  %.val.i.i = load i32, ptr %7, align 4, !tbaa !9
  %11 = icmp sgt i32 %.val.i.i, 0
  br i1 %11, label %12, label %14, !prof !12

12:                                               ; preds = %10
  %13 = add nuw nsw i32 %.val.i.i, 1
  store i32 %13, ptr %7, align 4, !tbaa !9
  br label %_ZN4lean3incEP11lean_object.exit

14:                                               ; preds = %10
  %.not.i.i = icmp eq i32 %.val.i.i, 0
  br i1 %.not.i.i, label %_ZN4lean3incEP11lean_object.exit, label %15

15:                                               ; preds = %14
  invoke void @lean_inc_ref_cold(ptr noundef nonnull %7)
          to label %_ZN4lean3incEP11lean_object.exit unwind label %25

_ZN4lean3incEP11lean_object.exit:                 ; preds = %14, %12, %3, %15
  %16 = load ptr, ptr %2, align 8, !tbaa !6
  %17 = ptrtoint ptr %16 to i64
  %18 = and i64 %17, 1
  %.not.i6 = icmp eq i64 %18, 0
  br i1 %.not.i6, label %19, label %_ZN4lean3incEP11lean_object.exit10

19:                                               ; preds = %_ZN4lean3incEP11lean_object.exit
  %.val.i.i7 = load i32, ptr %16, align 4, !tbaa !9
  %20 = icmp sgt i32 %.val.i.i7, 0
  br i1 %20, label %21, label %23, !prof !12

21:                                               ; preds = %19
  %22 = add nuw nsw i32 %.val.i.i7, 1
  store i32 %22, ptr %16, align 4, !tbaa !9
  br label %_ZN4lean3incEP11lean_object.exit10

23:                                               ; preds = %19
  %.not.i.i8 = icmp eq i32 %.val.i.i7, 0
  br i1 %.not.i.i8, label %_ZN4lean3incEP11lean_object.exit10, label %24

24:                                               ; preds = %23
  invoke void @lean_inc_ref_cold(ptr noundef nonnull %16)
          to label %_ZN4lean3incEP11lean_object.exit10 unwind label %25

_ZN4lean3incEP11lean_object.exit10:               ; preds = %23, %21, %_ZN4lean3incEP11lean_object.exit, %24
  ret void

25:                                               ; preds = %24, %15
  %26 = landingpad { ptr, i32 }
          cleanup
  tail call void @_ZN4lean10object_refD2Ev(ptr noundef nonnull align 8 dereferenceable(8) %0) #19
  resume { ptr, i32 } %26
}